; Function Attrs: mustprogress nounwind uwtable
define dso_local void @_ZN3dap4json17JsonCppSerializerD2Ev(ptr nocapture noundef nonnull align 8 dereferenceable(18) %0) unnamed_addr #4 align 2 {
  store ptr getelementptr inbounds ({ [13 x ptr] }, ptr @_ZTVN3dap4json17JsonCppSerializerE, i64 0, i32 0, i64 2), ptr %0, align 8
  %2 = getelementptr inbounds i8, ptr %0, i64 16
  %3 = load i8, ptr %2, align 8
  %4 = and i8 %3, 1
  %.not = icmp eq i8 %4, 0
  br i1 %.not, label %10, label %5

5:                                                ; preds = %1
  %6 = getelementptr inbounds i8, ptr %0, i64 8
  %7 = load ptr, ptr %6, align 8
  %8 = icmp eq ptr %7, null
  br i1 %8, label %10, label %9

9:                                                ; preds = %5
  tail call void @_ZN4Json5ValueD1Ev(ptr noundef nonnull align 8 dereferenceable(40) %7) #21
  tail call void @_ZdlPv(ptr noundef nonnull %7) #20
  br label %10

10:                                               ; preds = %5, %9, %1
  ret void
}